target datalayout = "e-m:e-p270:32:32-p271:32:32-p272:64:64-i64:64-i128:128-f80:128-n8:16:32:64-S128"
target triple = "x86_64-pc-linux-gnu"

%struct.UEnumeration = type { ptr, ptr, ptr, ptr, ptr, ptr, ptr }
%struct.UTransEnumeration = type { %struct.UEnumeration, i32, i32 }

; Function Attrs: inlinehint mustprogress nounwind uwtable
define internal noundef signext i8 @_ZL9U_FAILURE10UErrorCode(i32 noundef %0) #2 {
  %2 = alloca i32, align 4
  store i32 %0, ptr %2, align 4, !tbaa !40
  %3 = load i32, ptr %2, align 4, !tbaa !40
  %4 = icmp sgt i32 %3, 0
  %5 = zext i1 %4 to i8
  ret i8 %5
}

; Function Attrs: mustprogress uwtable
define ptr @utrans_openIDs_77(ptr noundef %0) #1 {
  %2 = alloca ptr, align 8
  %3 = alloca ptr, align 8
  %4 = alloca ptr, align 8
  %5 = alloca i32, align 4
  store ptr %0, ptr %3, align 8, !tbaa !39
  call void @llvm.lifetime.start.p0(i64 8, ptr %4) #9
  %6 = load ptr, ptr %3, align 8, !tbaa !39
  %7 = icmp eq ptr %6, null
  br i1 %7, label %13, label %8

8:                                                ; preds = %1
  %9 = load ptr, ptr %3, align 8, !tbaa !39
  %10 = load i32, ptr %9, align 4, !tbaa !40
  %11 = call noundef signext i8 @_ZL9U_FAILURE10UErrorCode(i32 noundef %10)
  %12 = icmp ne i8 %11, 0
  br i1 %12, label %13, label %14

13:                                               ; preds = %8, %1
  store ptr null, ptr %2, align 8
  store i32 1, ptr %5, align 4
  br label %29

14:                                               ; preds = %8
  %15 = call noalias ptr @uprv_malloc_77(i64 noundef 64) #10
  store ptr %15, ptr %4, align 8, !tbaa !57
  %16 = load ptr, ptr %4, align 8, !tbaa !57
  %17 = icmp eq ptr %16, null
  br i1 %17, label %18, label %20

18:                                               ; preds = %14
  %19 = load ptr, ptr %3, align 8, !tbaa !39
  store i32 7, ptr %19, align 4, !tbaa !40
  store ptr null, ptr %2, align 8
  store i32 1, ptr %5, align 4
  br label %29

20:                                               ; preds = %14
  %21 = load ptr, ptr %4, align 8, !tbaa !57
  %22 = getelementptr inbounds nuw %struct.UTransEnumeration, ptr %21, i32 0, i32 0
  call void @llvm.memcpy.p0.p0.i64(ptr align 8 %22, ptr align 8 @_ZL17utransEnumeration, i64 56, i1 false), !tbaa.struct !59
  %23 = load ptr, ptr %4, align 8, !tbaa !57
  %24 = getelementptr inbounds nuw %struct.UTransEnumeration, ptr %23, i32 0, i32 1
  store i32 0, ptr %24, align 8, !tbaa !60
  %25 = call noundef i32 @_ZN6icu_7714Transliterator17countAvailableIDsEv()
  %26 = load ptr, ptr %4, align 8, !tbaa !57
  %27 = getelementptr inbounds nuw %struct.UTransEnumeration, ptr %26, i32 0, i32 2
  store i32 %25, ptr %27, align 4, !tbaa !63
  %28 = load ptr, ptr %4, align 8, !tbaa !57
  store ptr %28, ptr %2, align 8
  store i32 1, ptr %5, align 4
  br label %29

29:                                               ; preds = %20, %18, %13
  call void @llvm.lifetime.end.p0(i64 8, ptr %4) #9
  %30 = load ptr, ptr %2, align 8
  ret ptr %30
}