; Function Attrs: mustprogress uwtable
define noalias noundef ptr @utrans_openIDs_77(ptr noundef %0) local_unnamed_addr #4 {
  %2 = icmp eq ptr %0, null
  br i1 %2, label %14, label %3

3:                                                ; preds = %1
  %4 = load i32, ptr %0, align 4, !tbaa !23
  %5 = icmp slt i32 %4, 1
  br i1 %5, label %6, label %14

6:                                                ; preds = %3
  %7 = tail call noalias dereferenceable_or_null(64) ptr @uprv_malloc_77(i64 noundef 64) #11
  %8 = icmp eq ptr %7, null
  br i1 %8, label %9, label %10

9:                                                ; preds = %6
  store i32 7, ptr %0, align 4, !tbaa !23
  br label %14

10:                                               ; preds = %6
  tail call void @llvm.memcpy.p0.p0.i64(ptr noundef nonnull align 8 dereferenceable(56) %7, ptr noundef nonnull align 8 dereferenceable(56) @_ZL17utransEnumeration, i64 56, i1 false), !tbaa.struct !33
  %11 = getelementptr inbounds nuw i8, ptr %7, i64 56
  store i32 0, ptr %11, align 8, !tbaa !35
  %12 = tail call noundef i32 @_ZN6icu_7714Transliterator17countAvailableIDsEv()
  %13 = getelementptr inbounds nuw i8, ptr %7, i64 60
  store i32 %12, ptr %13, align 4, !tbaa !38
  br label %14

14:                                               ; preds = %1, %3, %10, %9
  %.0 = phi ptr [ null, %9 ], [ %7, %10 ], [ null, %3 ], [ null, %1 ]
  ret ptr %.0
}